target datalayout = "e-m:e-p270:32:32-p271:32:32-p272:64:64-i64:64-i128:128-f80:128-n8:16:32:64-S128"
target triple = "x86_64-pc-linux-gnu"

@.str = private unnamed_addr constant [124 x i8] c"generated/home/dtcxzyw/WorkSpace/Projects/compilers/llvm-opt-benchmark/bench/libquic/libquic/boringssl/crypto/ecdsa/ecdsa.c\00", align 1

; Function Attrs: nounwind uwtable
define internal i32 @digest_to_bn(ptr noundef %0, ptr noundef %1, i64 noundef %2, ptr noundef %3) #0 {
  %5 = alloca i32, align 4
  %6 = alloca ptr, align 8
  %7 = alloca ptr, align 8
  %8 = alloca i64, align 8
  %9 = alloca ptr, align 8
  %10 = alloca i64, align 8
  %11 = alloca i32, align 4
  store ptr %0, ptr %6, align 8, !tbaa !30
  store ptr %1, ptr %7, align 8, !tbaa !10
  store i64 %2, ptr %8, align 8, !tbaa !13
  store ptr %3, ptr %9, align 8, !tbaa !30
  call void @llvm.lifetime.start.p0(i64 8, ptr %10) #5
  %12 = load ptr, ptr %9, align 8, !tbaa !30
  %13 = call i32 @BN_num_bits(ptr noundef %12)
  %14 = zext i32 %13 to i64
  store i64 %14, ptr %10, align 8, !tbaa !13
  %15 = load i64, ptr %8, align 8, !tbaa !13
  %16 = mul i64 8, %15
  %17 = load i64, ptr %10, align 8, !tbaa !13
  %18 = icmp ugt i64 %16, %17
  br i1 %18, label %19, label %23

19:                                               ; preds = %4
  %20 = load i64, ptr %10, align 8, !tbaa !13
  %21 = add i64 %20, 7
  %22 = udiv i64 %21, 8
  store i64 %22, ptr %8, align 8, !tbaa !13
  br label %23

23:                                               ; preds = %19, %4
  %24 = load ptr, ptr %7, align 8, !tbaa !10
  %25 = load i64, ptr %8, align 8, !tbaa !13
  %26 = load ptr, ptr %6, align 8, !tbaa !30
  %27 = call ptr @BN_bin2bn(ptr noundef %24, i64 noundef %25, ptr noundef %26)
  %28 = icmp ne ptr %27, null
  br i1 %28, label %30, label %29

29:                                               ; preds = %23
  call void @ERR_put_error(i32 noundef 26, i32 noundef 0, i32 noundef 3, ptr noundef @.str, i32 noundef 119)
  store i32 0, ptr %5, align 4
  store i32 1, ptr %11, align 4
  br label %46

30:                                               ; preds = %23
  %31 = load i64, ptr %8, align 8, !tbaa !13
  %32 = mul i64 8, %31
  %33 = load i64, ptr %10, align 8, !tbaa !13
  %34 = icmp ugt i64 %32, %33
  br i1 %34, label %35, label %45

35:                                               ; preds = %30
  %36 = load ptr, ptr %6, align 8, !tbaa !30
  %37 = load ptr, ptr %6, align 8, !tbaa !30
  %38 = load i64, ptr %10, align 8, !tbaa !13
  %39 = and i64 %38, 7
  %40 = sub i64 8, %39
  %41 = trunc i64 %40 to i32
  %42 = call i32 @BN_rshift(ptr noundef %36, ptr noundef %37, i32 noundef %41)
  %43 = icmp ne i32 %42, 0
  br i1 %43, label %45, label %44

44:                                               ; preds = %35
  call void @ERR_put_error(i32 noundef 26, i32 noundef 0, i32 noundef 3, ptr noundef @.str, i32 noundef 126)
  store i32 0, ptr %5, align 4
  store i32 1, ptr %11, align 4
  br label %46

45:                                               ; preds = %35, %30
  store i32 1, ptr %5, align 4
  store i32 1, ptr %11, align 4
  br label %46

46:                                               ; preds = %45, %44, %29
  call void @llvm.lifetime.end.p0(i64 8, ptr %10) #5
  %47 = load i32, ptr %5, align 4
  ret i32 %47
}