; Function Attrs: nounwind uwtable
define internal fastcc range(i32 0, 2) i32 @digest_to_bn(ptr noundef nonnull %0, ptr noundef %1, i64 noundef %2, ptr noundef %3) unnamed_addr #0 {
  %5 = tail call i32 @BN_num_bits(ptr noundef %3) #5
  %6 = zext i32 %5 to i64
  %7 = shl i64 %2, 3
  %8 = icmp ugt i64 %7, %6
  %9 = add nuw nsw i64 %6, 7
  %10 = lshr i64 %9, 3
  %.012 = select i1 %8, i64 %10, i64 %2
  %11 = tail call ptr @BN_bin2bn(ptr noundef %1, i64 noundef %.012, ptr noundef nonnull %0) #5
  %.not = icmp eq ptr %11, null
  br i1 %.not, label %.sink.split, label %12

12:                                               ; preds = %4
  %13 = shl i64 %.012, 3
  %14 = icmp ugt i64 %13, %6
  br i1 %14, label %15, label %19

15:                                               ; preds = %12
  %16 = and i32 %5, 7
  %17 = sub nuw nsw i32 8, %16
  %18 = tail call i32 @BN_rshift(ptr noundef nonnull %0, ptr noundef nonnull %0, i32 noundef %17) #5
  %.not14 = icmp eq i32 %18, 0
  br i1 %.not14, label %.sink.split, label %19

.sink.split:                                      ; preds = %15, %4
  %.sink = phi i32 [ 119, %4 ], [ 126, %15 ]
  tail call void @ERR_put_error(i32 noundef 26, i32 noundef 0, i32 noundef 3, ptr noundef nonnull @.str, i32 noundef %.sink) #5
  br label %19

19:                                               ; preds = %.sink.split, %12, %15
  %.0 = phi i32 [ 1, %15 ], [ 1, %12 ], [ 0, %.sink.split ]
  ret i32 %.0
}